target datalayout = "e-m:e-p270:32:32-p271:32:32-p272:64:64-i64:64-i128:128-f80:128-n8:16:32:64-S128"
target triple = "x86_64-pc-linux-gnu"

%struct.hashmap = type { ptr, ptr, ptr, i32, i32, i32, i32, i8 }
%struct.pattern_list = type { i32, i32, ptr, ptr, i32, i32, %struct.hashmap, %struct.hashmap }

@.str.2 = private unnamed_addr constant [1 x i8] zeroinitializer, align 1
@.str.17 = private unnamed_addr constant [21 x i8] c"info/sparse-checkout\00", align 1
@core_sparse_checkout_cone = external global i32, align 4

; Function Attrs: nounwind uwtable
define dso_local i32 @add_patterns_from_file_to_list(ptr noundef %0, ptr noundef %1, i32 noundef %2, ptr noundef %3, ptr noundef %4, i32 noundef %5) #0 {
  %7 = alloca ptr, align 8
  %8 = alloca ptr, align 8
  %9 = alloca i32, align 4
  %10 = alloca ptr, align 8
  %11 = alloca ptr, align 8
  %12 = alloca i32, align 4
  store ptr %0, ptr %7, align 8, !tbaa !13
  store ptr %1, ptr %8, align 8, !tbaa !13
  store i32 %2, ptr %9, align 4, !tbaa !16
  store ptr %3, ptr %10, align 8, !tbaa !123
  store ptr %4, ptr %11, align 8, !tbaa !41
  store i32 %5, ptr %12, align 4, !tbaa !16
  %13 = load ptr, ptr %7, align 8, !tbaa !13
  %14 = load ptr, ptr %8, align 8, !tbaa !13
  %15 = load i32, ptr %9, align 4, !tbaa !16
  %16 = load ptr, ptr %10, align 8, !tbaa !123
  %17 = load ptr, ptr %11, align 8, !tbaa !41
  %18 = load i32, ptr %12, align 4, !tbaa !16
  %19 = call i32 @add_patterns(ptr noundef %13, ptr noundef %14, i32 noundef %15, ptr noundef %16, ptr noundef %17, i32 noundef %18, ptr noundef null)
  ret i32 %19
}

; Function Attrs: nounwind uwtable
define dso_local ptr @get_sparse_checkout_filename() #0 {
  %1 = call ptr (ptr, ...) @git_pathdup(ptr noundef @.str.17)
  ret ptr %1
}

; Function Attrs: nounwind uwtable
define dso_local i32 @get_sparse_checkout_patterns(ptr noundef %0) #0 {
  %2 = alloca ptr, align 8
  %3 = alloca i32, align 4
  %4 = alloca ptr, align 8
  store ptr %0, ptr %2, align 8, !tbaa !123
  call void @llvm.lifetime.start.p0(i64 4, ptr %3) #12
  call void @llvm.lifetime.start.p0(i64 8, ptr %4) #12
  %5 = call ptr @get_sparse_checkout_filename()
  store ptr %5, ptr %4, align 8, !tbaa !13
  %6 = load i32, ptr @core_sparse_checkout_cone, align 4, !tbaa !16
  %7 = load ptr, ptr %2, align 8, !tbaa !123
  %8 = getelementptr inbounds nuw %struct.pattern_list, ptr %7, i32 0, i32 4
  store i32 %6, ptr %8, align 8, !tbaa !130
  %9 = load ptr, ptr %4, align 8, !tbaa !13
  %10 = load ptr, ptr %2, align 8, !tbaa !123
  %11 = call i32 @add_patterns_from_file_to_list(ptr noundef %9, ptr noundef @.str.2, i32 noundef 0, ptr noundef %10, ptr noundef null, i32 noundef 0)
  store i32 %11, ptr %3, align 4, !tbaa !16
  %12 = load ptr, ptr %4, align 8, !tbaa !13
  call void @free(ptr noundef %12) #12
  %13 = load i32, ptr %3, align 4, !tbaa !16
  call void @llvm.lifetime.end.p0(i64 8, ptr %4) #12
  call void @llvm.lifetime.end.p0(i64 4, ptr %3) #12
  ret i32 %13
}