; Function Attrs: nounwind uwtable
define dso_local range(i32 -1, 1) i32 @get_sparse_checkout_patterns(ptr noundef initializes((24, 28)) %0) local_unnamed_addr #0 {
  %2 = tail call ptr (ptr, ...) @git_pathdup(ptr noundef nonnull @.str.17)
  %3 = load i32, ptr @core_sparse_checkout_cone, align 4, !tbaa !10
  %4 = getelementptr inbounds nuw i8, ptr %0, i64 24
  store i32 %3, ptr %4, align 8, !tbaa !120
  %5 = tail call fastcc range(i32 -1, 1) i32 @add_patterns(ptr noundef %2, ptr noundef nonnull @.str.2, i32 noundef 0, ptr noundef %0, ptr noundef null, i32 noundef 0, ptr noundef null)
  tail call void @free(ptr noundef %2) #27
  ret i32 %5
}